	.file	"stack_example.c"
	.text
	.globl	test_function
	.type	test_function, @function
test_function:
.LFB0:
	.cfi_startproc
	pushq	%rbp
	.cfi_def_cfa_offset 16
	.cfi_offset 6, -16
	movq	%rsp, %rbp
	.cfi_def_cfa_register 6
	subq	$48, %rsp
	movl	%edi, -36(%rbp)
	movl	%esi, -40(%rbp)
	movl	%edx, -44(%rbp)
	movl	%ecx, -48(%rbp)
	movq	%fs:40, %rax
	movq	%rax, -8(%rbp)
	xorl	%eax, %eax
	movl	$31337, -24(%rbp)
	movb	$65, -18(%rbp)
	nop
	movq	-8(%rbp), %rax
	xorq	%fs:40, %rax
	je	.L2
	call	__stack_chk_fail@PLT
.L2:
	leave
	.cfi_def_cfa 7, 8
	ret
	.cfi_endproc
.LFE0:
	.size	test_function, .-test_function
	.globl	main
	.type	main, @function
main:
.LFB1:
	.cfi_startproc
	pushq	%rbp
	.cfi_def_cfa_offset 16
	.cfi_offset 6, -16
	movq	%rsp, %rbp
	.cfi_def_cfa_register 6
	movl	$4, %ecx
	movl	$3, %edx
	movl	$2, %esi
	movl	$1, %edi
	call	test_function
	movl	$0, %eax
	popq	%rbp
	.cfi_def_cfa 7, 8
	ret
	.cfi_endproc
.LFE1:
	.size	main, .-main
	.ident	"GCC: (Ubuntu 7.3.0-27ubuntu1~18.04) 7.3.0"
	.section	.note.GNU-stack,"",@progbits
