	.arch armv8-a
	.file	"memory_segments.c"
	.text
	.comm	global_var,4,4
	.global	global_initialized_var
	.data
	.align	2
	.type	global_initialized_var, %object
	.size	global_initialized_var, 4
global_initialized_var:
	.word	5
	.section	.rodata
	.align	3
.LC0:
	.string	"the function's stack_var is at address 0x%08x\n"
	.text
	.align	2
	.global	function
	.type	function, %function
function:
.LFB6:
	.cfi_startproc
	stp	x29, x30, [sp, -32]!
	.cfi_def_cfa_offset 32
	.cfi_offset 29, -32
	.cfi_offset 30, -24
	mov	x29, sp
	add	x0, sp, 28
	mov	x1, x0
	adrp	x0, .LC0
	add	x0, x0, :lo12:.LC0
	bl	printf
	nop
	ldp	x29, x30, [sp], 32
	.cfi_restore 30
	.cfi_restore 29
	.cfi_def_cfa_offset 0
	ret
	.cfi_endproc
.LFE6:
	.size	function, .-function
	.section	.rodata
	.align	3
.LC1:
	.string	"global_initialized_var is at address 0x%08x\n"
	.align	3
.LC2:
	.string	"static_initialized_var is at address 0x%08x\n\n"
	.align	3
.LC3:
	.string	"static var is at address 0x%08x\n"
	.align	3
.LC4:
	.string	"global_var is at address 0x%08x\n\n"
	.align	3
.LC5:
	.string	"heap_var is at address 0x%08x\n\n"
	.align	3
.LC6:
	.string	"stack_var is at address 0x%08x\n"
	.text
	.align	2
	.global	main
	.type	main, %function
main:
.LFB7:
	.cfi_startproc
	stp	x29, x30, [sp, -32]!
	.cfi_def_cfa_offset 32
	.cfi_offset 29, -32
	.cfi_offset 30, -24
	mov	x29, sp
	mov	x0, 4
	bl	malloc
	str	x0, [sp, 24]
	adrp	x0, global_initialized_var
	add	x1, x0, :lo12:global_initialized_var
	adrp	x0, .LC1
	add	x0, x0, :lo12:.LC1
	bl	printf
	adrp	x0, static_initialized_var.4250
	add	x1, x0, :lo12:static_initialized_var.4250
	adrp	x0, .LC2
	add	x0, x0, :lo12:.LC2
	bl	printf
	adrp	x0, static_var.4251
	add	x1, x0, :lo12:static_var.4251
	adrp	x0, .LC3
	add	x0, x0, :lo12:.LC3
	bl	printf
	adrp	x0, :got:global_var
	ldr	x1, [x0, #:got_lo12:global_var]
	adrp	x0, .LC4
	add	x0, x0, :lo12:.LC4
	bl	printf
	ldr	x1, [sp, 24]
	adrp	x0, .LC5
	add	x0, x0, :lo12:.LC5
	bl	printf
	add	x0, sp, 20
	mov	x1, x0
	adrp	x0, .LC6
	add	x0, x0, :lo12:.LC6
	bl	printf
	bl	function
	mov	w0, 0
	ldp	x29, x30, [sp], 32
	.cfi_restore 30
	.cfi_restore 29
	.cfi_def_cfa_offset 0
	ret
	.cfi_endproc
.LFE7:
	.size	main, .-main
	.data
	.align	2
	.type	static_initialized_var.4250, %object
	.size	static_initialized_var.4250, 4
static_initialized_var.4250:
	.word	5
	.local	static_var.4251
	.comm	static_var.4251,4,4
	.ident	"GCC: (Debian 8.3.0-19) 8.3.0"
	.section	.note.GNU-stack,"",@progbits
