
stack_example_C_AMD64:     file format elf64-x86-64
stack_example_C_AMD64
architecture: i386:x86-64, flags 0x00000150:
HAS_SYMS, DYNAMIC, D_PAGED
start address 0x0000000000000560

Program Header:
    PHDR off    0x0000000000000040 vaddr 0x0000000000000040 paddr 0x0000000000000040 align 2**3
         filesz 0x00000000000001f8 memsz 0x00000000000001f8 flags r--
  INTERP off    0x0000000000000238 vaddr 0x0000000000000238 paddr 0x0000000000000238 align 2**0
         filesz 0x000000000000001c memsz 0x000000000000001c flags r--
    LOAD off    0x0000000000000000 vaddr 0x0000000000000000 paddr 0x0000000000000000 align 2**21
         filesz 0x00000000000008d0 memsz 0x00000000000008d0 flags r-x
    LOAD off    0x0000000000000db8 vaddr 0x0000000000200db8 paddr 0x0000000000200db8 align 2**21
         filesz 0x0000000000000258 memsz 0x0000000000000260 flags rw-
 DYNAMIC off    0x0000000000000dc8 vaddr 0x0000000000200dc8 paddr 0x0000000000200dc8 align 2**3
         filesz 0x00000000000001f0 memsz 0x00000000000001f0 flags rw-
    NOTE off    0x0000000000000254 vaddr 0x0000000000000254 paddr 0x0000000000000254 align 2**2
         filesz 0x0000000000000044 memsz 0x0000000000000044 flags r--
EH_FRAME off    0x0000000000000764 vaddr 0x0000000000000764 paddr 0x0000000000000764 align 2**2
         filesz 0x0000000000000044 memsz 0x0000000000000044 flags r--
   STACK off    0x0000000000000000 vaddr 0x0000000000000000 paddr 0x0000000000000000 align 2**4
         filesz 0x0000000000000000 memsz 0x0000000000000000 flags rw-
   RELRO off    0x0000000000000db8 vaddr 0x0000000000200db8 paddr 0x0000000000200db8 align 2**0
         filesz 0x0000000000000248 memsz 0x0000000000000248 flags r--

Dynamic Section:
  NEEDED               libc.so.6
  INIT                 0x0000000000000510
  FINI                 0x0000000000000754
  INIT_ARRAY           0x0000000000200db8
  INIT_ARRAYSZ         0x0000000000000008
  FINI_ARRAY           0x0000000000200dc0
  FINI_ARRAYSZ         0x0000000000000008
  GNU_HASH             0x0000000000000298
  STRTAB               0x0000000000000360
  SYMTAB               0x00000000000002b8
  STRSZ                0x0000000000000098
  SYMENT               0x0000000000000018
  DEBUG                0x0000000000000000
  PLTGOT               0x0000000000200fb8
  PLTRELSZ             0x0000000000000018
  PLTREL               0x0000000000000007
  JMPREL               0x00000000000004f8
  RELA                 0x0000000000000438
  RELASZ               0x00000000000000c0
  RELAENT              0x0000000000000018
  FLAGS                0x0000000000000008
  FLAGS_1              0x0000000008000001
  VERNEED              0x0000000000000408
  VERNEEDNUM           0x0000000000000001
  VERSYM               0x00000000000003f8
  RELACOUNT            0x0000000000000003

Version References:
  required from libc.so.6:
    0x09691a75 0x00 03 GLIBC_2.2.5
    0x0d696914 0x00 02 GLIBC_2.4

Sections:
Idx Name          Size      VMA               LMA               File off  Algn
  0 .interp       0000001c  0000000000000238  0000000000000238  00000238  2**0
                  CONTENTS, ALLOC, LOAD, READONLY, DATA
  1 .note.ABI-tag 00000020  0000000000000254  0000000000000254  00000254  2**2
                  CONTENTS, ALLOC, LOAD, READONLY, DATA
  2 .note.gnu.build-id 00000024  0000000000000274  0000000000000274  00000274  2**2
                  CONTENTS, ALLOC, LOAD, READONLY, DATA
  3 .gnu.hash     0000001c  0000000000000298  0000000000000298  00000298  2**3
                  CONTENTS, ALLOC, LOAD, READONLY, DATA
  4 .dynsym       000000a8  00000000000002b8  00000000000002b8  000002b8  2**3
                  CONTENTS, ALLOC, LOAD, READONLY, DATA
  5 .dynstr       00000098  0000000000000360  0000000000000360  00000360  2**0
                  CONTENTS, ALLOC, LOAD, READONLY, DATA
  6 .gnu.version  0000000e  00000000000003f8  00000000000003f8  000003f8  2**1
                  CONTENTS, ALLOC, LOAD, READONLY, DATA
  7 .gnu.version_r 00000030  0000000000000408  0000000000000408  00000408  2**3
                  CONTENTS, ALLOC, LOAD, READONLY, DATA
  8 .rela.dyn     000000c0  0000000000000438  0000000000000438  00000438  2**3
                  CONTENTS, ALLOC, LOAD, READONLY, DATA
  9 .rela.plt     00000018  00000000000004f8  00000000000004f8  000004f8  2**3
                  CONTENTS, ALLOC, LOAD, READONLY, DATA
 10 .init         00000017  0000000000000510  0000000000000510  00000510  2**2
                  CONTENTS, ALLOC, LOAD, READONLY, CODE
 11 .plt          00000020  0000000000000530  0000000000000530  00000530  2**4
                  CONTENTS, ALLOC, LOAD, READONLY, CODE
 12 .plt.got      00000008  0000000000000550  0000000000000550  00000550  2**3
                  CONTENTS, ALLOC, LOAD, READONLY, CODE
 13 .text         000001f2  0000000000000560  0000000000000560  00000560  2**4
                  CONTENTS, ALLOC, LOAD, READONLY, CODE
 14 .fini         00000009  0000000000000754  0000000000000754  00000754  2**2
                  CONTENTS, ALLOC, LOAD, READONLY, CODE
 15 .rodata       00000004  0000000000000760  0000000000000760  00000760  2**2
                  CONTENTS, ALLOC, LOAD, READONLY, DATA
 16 .eh_frame_hdr 00000044  0000000000000764  0000000000000764  00000764  2**2
                  CONTENTS, ALLOC, LOAD, READONLY, DATA
 17 .eh_frame     00000128  00000000000007a8  00000000000007a8  000007a8  2**3
                  CONTENTS, ALLOC, LOAD, READONLY, DATA
 18 .init_array   00000008  0000000000200db8  0000000000200db8  00000db8  2**3
                  CONTENTS, ALLOC, LOAD, DATA
 19 .fini_array   00000008  0000000000200dc0  0000000000200dc0  00000dc0  2**3
                  CONTENTS, ALLOC, LOAD, DATA
 20 .dynamic      000001f0  0000000000200dc8  0000000000200dc8  00000dc8  2**3
                  CONTENTS, ALLOC, LOAD, DATA
 21 .got          00000048  0000000000200fb8  0000000000200fb8  00000fb8  2**3
                  CONTENTS, ALLOC, LOAD, DATA
 22 .data         00000010  0000000000201000  0000000000201000  00001000  2**3
                  CONTENTS, ALLOC, LOAD, DATA
 23 .bss          00000008  0000000000201010  0000000000201010  00001010  2**0
                  ALLOC
 24 .comment      0000002a  0000000000000000  0000000000000000  00001010  2**0
                  CONTENTS, READONLY
SYMBOL TABLE:
0000000000000238 l    d  .interp	0000000000000000              .interp
0000000000000254 l    d  .note.ABI-tag	0000000000000000              .note.ABI-tag
0000000000000274 l    d  .note.gnu.build-id	0000000000000000              .note.gnu.build-id
0000000000000298 l    d  .gnu.hash	0000000000000000              .gnu.hash
00000000000002b8 l    d  .dynsym	0000000000000000              .dynsym
0000000000000360 l    d  .dynstr	0000000000000000              .dynstr
00000000000003f8 l    d  .gnu.version	0000000000000000              .gnu.version
0000000000000408 l    d  .gnu.version_r	0000000000000000              .gnu.version_r
0000000000000438 l    d  .rela.dyn	0000000000000000              .rela.dyn
00000000000004f8 l    d  .rela.plt	0000000000000000              .rela.plt
0000000000000510 l    d  .init	0000000000000000              .init
0000000000000530 l    d  .plt	0000000000000000              .plt
0000000000000550 l    d  .plt.got	0000000000000000              .plt.got
0000000000000560 l    d  .text	0000000000000000              .text
0000000000000754 l    d  .fini	0000000000000000              .fini
0000000000000760 l    d  .rodata	0000000000000000              .rodata
0000000000000764 l    d  .eh_frame_hdr	0000000000000000              .eh_frame_hdr
00000000000007a8 l    d  .eh_frame	0000000000000000              .eh_frame
0000000000200db8 l    d  .init_array	0000000000000000              .init_array
0000000000200dc0 l    d  .fini_array	0000000000000000              .fini_array
0000000000200dc8 l    d  .dynamic	0000000000000000              .dynamic
0000000000200fb8 l    d  .got	0000000000000000              .got
0000000000201000 l    d  .data	0000000000000000              .data
0000000000201010 l    d  .bss	0000000000000000              .bss
0000000000000000 l    d  .comment	0000000000000000              .comment
0000000000000000 l    df *ABS*	0000000000000000              crtstuff.c
0000000000000590 l     F .text	0000000000000000              deregister_tm_clones
00000000000005d0 l     F .text	0000000000000000              register_tm_clones
0000000000000620 l     F .text	0000000000000000              __do_global_dtors_aux
0000000000201010 l     O .bss	0000000000000001              completed.7696
0000000000200dc0 l     O .fini_array	0000000000000000              __do_global_dtors_aux_fini_array_entry
0000000000000660 l     F .text	0000000000000000              frame_dummy
0000000000200db8 l     O .init_array	0000000000000000              __frame_dummy_init_array_entry
0000000000000000 l    df *ABS*	0000000000000000              stack_example.c
0000000000000000 l    df *ABS*	0000000000000000              crtstuff.c
00000000000008cc l     O .eh_frame	0000000000000000              __FRAME_END__
0000000000000000 l    df *ABS*	0000000000000000              
0000000000200dc0 l       .init_array	0000000000000000              __init_array_end
0000000000200dc8 l     O .dynamic	0000000000000000              _DYNAMIC
0000000000200db8 l       .init_array	0000000000000000              __init_array_start
0000000000000764 l       .eh_frame_hdr	0000000000000000              __GNU_EH_FRAME_HDR
0000000000200fb8 l     O .got	0000000000000000              _GLOBAL_OFFSET_TABLE_
0000000000000750 g     F .text	0000000000000002              __libc_csu_fini
0000000000000000  w      *UND*	0000000000000000              _ITM_deregisterTMCloneTable
0000000000201000  w      .data	0000000000000000              data_start
0000000000201010 g       .data	0000000000000000              _edata
0000000000000754 g     F .fini	0000000000000000              _fini
0000000000000000       F *UND*	0000000000000000              __stack_chk_fail@@GLIBC_2.4
0000000000000000       F *UND*	0000000000000000              __libc_start_main@@GLIBC_2.2.5
0000000000201000 g       .data	0000000000000000              __data_start
0000000000000000  w      *UND*	0000000000000000              __gmon_start__
0000000000201008 g     O .data	0000000000000000              .hidden __dso_handle
0000000000000760 g     O .rodata	0000000000000004              _IO_stdin_used
00000000000006e0 g     F .text	0000000000000065              __libc_csu_init
0000000000201018 g       .bss	0000000000000000              _end
0000000000000560 g     F .text	000000000000002b              _start
0000000000201010 g       .bss	0000000000000000              __bss_start
00000000000006af g     F .text	0000000000000024              main
0000000000201010 g     O .data	0000000000000000              .hidden __TMC_END__
0000000000000000  w      *UND*	0000000000000000              _ITM_registerTMCloneTable
0000000000000000  w    F *UND*	0000000000000000              __cxa_finalize@@GLIBC_2.2.5
0000000000000510 g     F .init	0000000000000000              _init
000000000000066a g     F .text	0000000000000045              test_function


Contents of section .interp:
 0238 2f6c6962 36342f6c 642d6c69 6e75782d  /lib64/ld-linux-
 0248 7838362d 36342e73 6f2e3200           x86-64.so.2.    
Contents of section .note.ABI-tag:
 0254 04000000 10000000 01000000 474e5500  ............GNU.
 0264 00000000 03000000 02000000 00000000  ................
Contents of section .note.gnu.build-id:
 0274 04000000 14000000 03000000 474e5500  ............GNU.
 0284 46ed0104 e4b4defe 88840a64 e7fcc240  F..........d...@
 0294 074a5ab0                             .JZ.            
Contents of section .gnu.hash:
 0298 01000000 01000000 01000000 00000000  ................
 02a8 00000000 00000000 00000000           ............    
Contents of section .dynsym:
 02b8 00000000 00000000 00000000 00000000  ................
 02c8 00000000 00000000 53000000 20000000  ........S... ...
 02d8 00000000 00000000 00000000 00000000  ................
 02e8 0b000000 12000000 00000000 00000000  ................
 02f8 00000000 00000000 2b000000 12000000  ........+.......
 0308 00000000 00000000 00000000 00000000  ................
 0318 6f000000 20000000 00000000 00000000  o... ...........
 0328 00000000 00000000 7e000000 20000000  ........~... ...
 0338 00000000 00000000 00000000 00000000  ................
 0348 1c000000 22000000 00000000 00000000  ...."...........
 0358 00000000 00000000                    ........        
Contents of section .dynstr:
 0360 006c6962 632e736f 2e36005f 5f737461  .libc.so.6.__sta
 0370 636b5f63 686b5f66 61696c00 5f5f6378  ck_chk_fail.__cx
 0380 615f6669 6e616c69 7a65005f 5f6c6962  a_finalize.__lib
 0390 635f7374 6172745f 6d61696e 00474c49  c_start_main.GLI
 03a0 42435f32 2e322e35 00474c49 42435f32  BC_2.2.5.GLIBC_2
 03b0 2e34005f 49544d5f 64657265 67697374  .4._ITM_deregist
 03c0 6572544d 436c6f6e 65546162 6c65005f  erTMCloneTable._
 03d0 5f676d6f 6e5f7374 6172745f 5f005f49  _gmon_start__._I
 03e0 544d5f72 65676973 74657254 4d436c6f  TM_registerTMClo
 03f0 6e655461 626c6500                    neTable.        
Contents of section .gnu.version:
 03f8 00000000 02000300 00000000 0300      ..............  
Contents of section .gnu.version_r:
 0408 01000200 01000000 10000000 00000000  ................
 0418 751a6909 00000300 3d000000 10000000  u.i.....=.......
 0428 1469690d 00000200 49000000 00000000  .ii.....I.......
Contents of section .rela.dyn:
 0438 b80d2000 00000000 08000000 00000000  .. .............
 0448 60060000 00000000 c00d2000 00000000  `......... .....
 0458 08000000 00000000 20060000 00000000  ........ .......
 0468 08102000 00000000 08000000 00000000  .. .............
 0478 08102000 00000000 d80f2000 00000000  .. ....... .....
 0488 06000000 01000000 00000000 00000000  ................
 0498 e00f2000 00000000 06000000 03000000  .. .............
 04a8 00000000 00000000 e80f2000 00000000  .......... .....
 04b8 06000000 04000000 00000000 00000000  ................
 04c8 f00f2000 00000000 06000000 05000000  .. .............
 04d8 00000000 00000000 f80f2000 00000000  .......... .....
 04e8 06000000 06000000 00000000 00000000  ................
Contents of section .rela.plt:
 04f8 d00f2000 00000000 07000000 02000000  .. .............
 0508 00000000 00000000                    ........        
Contents of section .init:
 0510 4883ec08 488b05cd 0a200048 85c07402  H...H.... .H..t.
 0520 ffd04883 c408c3                      ..H....         
Contents of section .plt:
 0530 ff358a0a 2000ff25 8c0a2000 0f1f4000  .5.. ..%.. ...@.
 0540 ff258a0a 20006800 000000e9 e0ffffff  .%.. .h.........
Contents of section .plt.got:
 0550 ff25a20a 20006690                    .%.. .f.        
Contents of section .text:
 0560 31ed4989 d15e4889 e24883e4 f050544c  1.I..^H..H...PTL
 0570 8d05da01 0000488d 0d630100 00488d3d  ......H..c...H.=
 0580 2b010000 ff15560a 2000f40f 1f440000  +.....V. ....D..
 0590 488d3d79 0a200055 488d0571 0a200048  H.=y. .UH..q. .H
 05a0 39f84889 e5741948 8b052a0a 20004885  9.H..t.H..*. .H.
 05b0 c0740d5d ffe0662e 0f1f8400 00000000  .t.]..f.........
 05c0 5dc30f1f 4000662e 0f1f8400 00000000  ]...@.f.........
 05d0 488d3d39 0a200048 8d35320a 20005548  H.=9. .H.52. .UH
 05e0 29fe4889 e548c1fe 034889f0 48c1e83f  ).H..H...H..H..?
 05f0 4801c648 d1fe7418 488b05f1 09200048  H..H..t.H.... .H
 0600 85c0740c 5dffe066 0f1f8400 00000000  ..t.]..f........
 0610 5dc30f1f 4000662e 0f1f8400 00000000  ]...@.f.........
 0620 803de909 20000075 2f48833d c7092000  .=.. ..u/H.=.. .
 0630 00554889 e5740c48 8b3dca09 2000e80d  .UH..t.H.=.. ...
 0640 ffffffe8 48ffffff c605c109 2000015d  ....H....... ..]
 0650 c30f1f80 00000000 f3c3660f 1f440000  ..........f..D..
 0660 554889e5 5de966ff ffff5548 89e54883  UH..].f...UH..H.
 0670 ec30897d dc8975d8 8955d489 4dd06448  .0.}..u..U..M.dH
 0680 8b042528 00000048 8945f831 c0c745e8  ..%(...H.E.1..E.
 0690 697a0000 c645ee41 90488b45 f8644833  iz...E.A.H.E.dH3
 06a0 04252800 00007405 e893feff ffc9c355  .%(...t........U
 06b0 4889e5b9 04000000 ba030000 00be0200  H...............
 06c0 0000bf01 000000e8 9effffff b8000000  ................
 06d0 005dc366 2e0f1f84 00000000 000f1f00  .].f............
 06e0 41574156 4989d741 5541544c 8d25c606  AWAVI..AUATL.%..
 06f0 20005548 8d2dc606 20005341 89fd4989   .UH.-.. .SA..I.
 0700 f64c29e5 4883ec08 48c1fd03 e8fffdff  .L).H...H.......
 0710 ff4885ed 742031db 0f1f8400 00000000  .H..t 1.........
 0720 4c89fa4c 89f64489 ef41ff14 dc4883c3  L..L..D..A...H..
 0730 014839dd 75ea4883 c4085b5d 415c415d  .H9.u.H...[]A\A]
 0740 415e415f c390662e 0f1f8400 00000000  A^A_..f.........
 0750 f3c3                                 ..              
Contents of section .fini:
 0754 4883ec08 4883c408 c3                 H...H....       
Contents of section .rodata:
 0760 01000200                             ....            
Contents of section .eh_frame_hdr:
 0764 011b033b 40000000 07000000 ccfdffff  ...;@...........
 0774 8c000000 ecfdffff b4000000 fcfdffff  ................
 0784 5c000000 06ffffff cc000000 4bffffff  \...........K...
 0794 ec000000 7cffffff 0c010000 ecffffff  ....|...........
 07a4 54010000                             T...            
Contents of section .eh_frame:
 07a8 14000000 00000000 017a5200 01781001  .........zR..x..
 07b8 1b0c0708 90010710 14000000 1c000000  ................
 07c8 98fdffff 2b000000 00000000 00000000  ....+...........
 07d8 14000000 00000000 017a5200 01781001  .........zR..x..
 07e8 1b0c0708 90010000 24000000 1c000000  ........$.......
 07f8 38fdffff 20000000 000e1046 0e184a0f  8... ......F..J.
 0808 0b770880 003f1a3b 2a332422 00000000  .w...?.;*3$"....
 0818 14000000 44000000 30fdffff 08000000  ....D...0.......
 0828 00000000 00000000 1c000000 5c000000  ............\...
 0838 32feffff 45000000 00410e10 8602430d  2...E....A....C.
 0848 0602400c 07080000 1c000000 7c000000  ..@.........|...
 0858 57feffff 24000000 00410e10 8602430d  W...$....A....C.
 0868 065f0c07 08000000 44000000 9c000000  ._......D.......
 0878 68feffff 65000000 00420e10 8f02420e  h...e....B....B.
 0888 188e0345 0e208d04 420e288c 05480e30  ...E. ..B.(..H.0
 0898 8606480e 3883074d 0e40720e 38410e30  ..H.8..M.@r.8A.0
 08a8 410e2842 0e20420e 18420e10 420e0800  A.(B. B..B..B...
 08b8 10000000 e4000000 90feffff 02000000  ................
 08c8 00000000 00000000                    ........        
Contents of section .init_array:
 200db8 60060000 00000000                    `.......        
Contents of section .fini_array:
 200dc0 20060000 00000000                     .......        
Contents of section .dynamic:
 200dc8 01000000 00000000 01000000 00000000  ................
 200dd8 0c000000 00000000 10050000 00000000  ................
 200de8 0d000000 00000000 54070000 00000000  ........T.......
 200df8 19000000 00000000 b80d2000 00000000  .......... .....
 200e08 1b000000 00000000 08000000 00000000  ................
 200e18 1a000000 00000000 c00d2000 00000000  .......... .....
 200e28 1c000000 00000000 08000000 00000000  ................
 200e38 f5feff6f 00000000 98020000 00000000  ...o............
 200e48 05000000 00000000 60030000 00000000  ........`.......
 200e58 06000000 00000000 b8020000 00000000  ................
 200e68 0a000000 00000000 98000000 00000000  ................
 200e78 0b000000 00000000 18000000 00000000  ................
 200e88 15000000 00000000 00000000 00000000  ................
 200e98 03000000 00000000 b80f2000 00000000  .......... .....
 200ea8 02000000 00000000 18000000 00000000  ................
 200eb8 14000000 00000000 07000000 00000000  ................
 200ec8 17000000 00000000 f8040000 00000000  ................
 200ed8 07000000 00000000 38040000 00000000  ........8.......
 200ee8 08000000 00000000 c0000000 00000000  ................
 200ef8 09000000 00000000 18000000 00000000  ................
 200f08 1e000000 00000000 08000000 00000000  ................
 200f18 fbffff6f 00000000 01000008 00000000  ...o............
 200f28 feffff6f 00000000 08040000 00000000  ...o............
 200f38 ffffff6f 00000000 01000000 00000000  ...o............
 200f48 f0ffff6f 00000000 f8030000 00000000  ...o............
 200f58 f9ffff6f 00000000 03000000 00000000  ...o............
 200f68 00000000 00000000 00000000 00000000  ................
 200f78 00000000 00000000 00000000 00000000  ................
 200f88 00000000 00000000 00000000 00000000  ................
 200f98 00000000 00000000 00000000 00000000  ................
 200fa8 00000000 00000000 00000000 00000000  ................
Contents of section .got:
 200fb8 c80d2000 00000000 00000000 00000000  .. .............
 200fc8 00000000 00000000 46050000 00000000  ........F.......
 200fd8 00000000 00000000 00000000 00000000  ................
 200fe8 00000000 00000000 00000000 00000000  ................
 200ff8 00000000 00000000                    ........        
Contents of section .data:
 201000 00000000 00000000 08102000 00000000  .......... .....
Contents of section .comment:
 0000 4743433a 20285562 756e7475 20372e33  GCC: (Ubuntu 7.3
 0010 2e302d32 37756275 6e747531 7e31382e  .0-27ubuntu1~18.
 0020 30342920 372e332e 3000               04) 7.3.0.      

Disassembly of section .init:

0000000000000510 <_init>:
 510:	48 83 ec 08          	sub    rsp,0x8
 514:	48 8b 05 cd 0a 20 00 	mov    rax,QWORD PTR [rip+0x200acd]        # 200fe8 <__gmon_start__>
 51b:	48 85 c0             	test   rax,rax
 51e:	74 02                	je     522 <_init+0x12>
 520:	ff d0                	call   rax
 522:	48 83 c4 08          	add    rsp,0x8
 526:	c3                   	ret    

Disassembly of section .plt:

0000000000000530 <.plt>:
 530:	ff 35 8a 0a 20 00    	push   QWORD PTR [rip+0x200a8a]        # 200fc0 <_GLOBAL_OFFSET_TABLE_+0x8>
 536:	ff 25 8c 0a 20 00    	jmp    QWORD PTR [rip+0x200a8c]        # 200fc8 <_GLOBAL_OFFSET_TABLE_+0x10>
 53c:	0f 1f 40 00          	nop    DWORD PTR [rax+0x0]

0000000000000540 <__stack_chk_fail@plt>:
 540:	ff 25 8a 0a 20 00    	jmp    QWORD PTR [rip+0x200a8a]        # 200fd0 <__stack_chk_fail@GLIBC_2.4>
 546:	68 00 00 00 00       	push   0x0
 54b:	e9 e0 ff ff ff       	jmp    530 <.plt>

Disassembly of section .plt.got:

0000000000000550 <__cxa_finalize@plt>:
 550:	ff 25 a2 0a 20 00    	jmp    QWORD PTR [rip+0x200aa2]        # 200ff8 <__cxa_finalize@GLIBC_2.2.5>
 556:	66 90                	xchg   ax,ax

Disassembly of section .text:

0000000000000560 <_start>:
 560:	31 ed                	xor    ebp,ebp
 562:	49 89 d1             	mov    r9,rdx
 565:	5e                   	pop    rsi
 566:	48 89 e2             	mov    rdx,rsp
 569:	48 83 e4 f0          	and    rsp,0xfffffffffffffff0
 56d:	50                   	push   rax
 56e:	54                   	push   rsp
 56f:	4c 8d 05 da 01 00 00 	lea    r8,[rip+0x1da]        # 750 <__libc_csu_fini>
 576:	48 8d 0d 63 01 00 00 	lea    rcx,[rip+0x163]        # 6e0 <__libc_csu_init>
 57d:	48 8d 3d 2b 01 00 00 	lea    rdi,[rip+0x12b]        # 6af <main>
 584:	ff 15 56 0a 20 00    	call   QWORD PTR [rip+0x200a56]        # 200fe0 <__libc_start_main@GLIBC_2.2.5>
 58a:	f4                   	hlt    
 58b:	0f 1f 44 00 00       	nop    DWORD PTR [rax+rax*1+0x0]

0000000000000590 <deregister_tm_clones>:
 590:	48 8d 3d 79 0a 20 00 	lea    rdi,[rip+0x200a79]        # 201010 <__TMC_END__>
 597:	55                   	push   rbp
 598:	48 8d 05 71 0a 20 00 	lea    rax,[rip+0x200a71]        # 201010 <__TMC_END__>
 59f:	48 39 f8             	cmp    rax,rdi
 5a2:	48 89 e5             	mov    rbp,rsp
 5a5:	74 19                	je     5c0 <deregister_tm_clones+0x30>
 5a7:	48 8b 05 2a 0a 20 00 	mov    rax,QWORD PTR [rip+0x200a2a]        # 200fd8 <_ITM_deregisterTMCloneTable>
 5ae:	48 85 c0             	test   rax,rax
 5b1:	74 0d                	je     5c0 <deregister_tm_clones+0x30>
 5b3:	5d                   	pop    rbp
 5b4:	ff e0                	jmp    rax
 5b6:	66 2e 0f 1f 84 00 00 	nop    WORD PTR cs:[rax+rax*1+0x0]
 5bd:	00 00 00 
 5c0:	5d                   	pop    rbp
 5c1:	c3                   	ret    
 5c2:	0f 1f 40 00          	nop    DWORD PTR [rax+0x0]
 5c6:	66 2e 0f 1f 84 00 00 	nop    WORD PTR cs:[rax+rax*1+0x0]
 5cd:	00 00 00 

00000000000005d0 <register_tm_clones>:
 5d0:	48 8d 3d 39 0a 20 00 	lea    rdi,[rip+0x200a39]        # 201010 <__TMC_END__>
 5d7:	48 8d 35 32 0a 20 00 	lea    rsi,[rip+0x200a32]        # 201010 <__TMC_END__>
 5de:	55                   	push   rbp
 5df:	48 29 fe             	sub    rsi,rdi
 5e2:	48 89 e5             	mov    rbp,rsp
 5e5:	48 c1 fe 03          	sar    rsi,0x3
 5e9:	48 89 f0             	mov    rax,rsi
 5ec:	48 c1 e8 3f          	shr    rax,0x3f
 5f0:	48 01 c6             	add    rsi,rax
 5f3:	48 d1 fe             	sar    rsi,1
 5f6:	74 18                	je     610 <register_tm_clones+0x40>
 5f8:	48 8b 05 f1 09 20 00 	mov    rax,QWORD PTR [rip+0x2009f1]        # 200ff0 <_ITM_registerTMCloneTable>
 5ff:	48 85 c0             	test   rax,rax
 602:	74 0c                	je     610 <register_tm_clones+0x40>
 604:	5d                   	pop    rbp
 605:	ff e0                	jmp    rax
 607:	66 0f 1f 84 00 00 00 	nop    WORD PTR [rax+rax*1+0x0]
 60e:	00 00 
 610:	5d                   	pop    rbp
 611:	c3                   	ret    
 612:	0f 1f 40 00          	nop    DWORD PTR [rax+0x0]
 616:	66 2e 0f 1f 84 00 00 	nop    WORD PTR cs:[rax+rax*1+0x0]
 61d:	00 00 00 

0000000000000620 <__do_global_dtors_aux>:
 620:	80 3d e9 09 20 00 00 	cmp    BYTE PTR [rip+0x2009e9],0x0        # 201010 <__TMC_END__>
 627:	75 2f                	jne    658 <__do_global_dtors_aux+0x38>
 629:	48 83 3d c7 09 20 00 	cmp    QWORD PTR [rip+0x2009c7],0x0        # 200ff8 <__cxa_finalize@GLIBC_2.2.5>
 630:	00 
 631:	55                   	push   rbp
 632:	48 89 e5             	mov    rbp,rsp
 635:	74 0c                	je     643 <__do_global_dtors_aux+0x23>
 637:	48 8b 3d ca 09 20 00 	mov    rdi,QWORD PTR [rip+0x2009ca]        # 201008 <__dso_handle>
 63e:	e8 0d ff ff ff       	call   550 <__cxa_finalize@plt>
 643:	e8 48 ff ff ff       	call   590 <deregister_tm_clones>
 648:	c6 05 c1 09 20 00 01 	mov    BYTE PTR [rip+0x2009c1],0x1        # 201010 <__TMC_END__>
 64f:	5d                   	pop    rbp
 650:	c3                   	ret    
 651:	0f 1f 80 00 00 00 00 	nop    DWORD PTR [rax+0x0]
 658:	f3 c3                	repz ret 
 65a:	66 0f 1f 44 00 00    	nop    WORD PTR [rax+rax*1+0x0]

0000000000000660 <frame_dummy>:
 660:	55                   	push   rbp
 661:	48 89 e5             	mov    rbp,rsp
 664:	5d                   	pop    rbp
 665:	e9 66 ff ff ff       	jmp    5d0 <register_tm_clones>

000000000000066a <test_function>:
 66a:	55                   	push   rbp
 66b:	48 89 e5             	mov    rbp,rsp
 66e:	48 83 ec 30          	sub    rsp,0x30
 672:	89 7d dc             	mov    DWORD PTR [rbp-0x24],edi
 675:	89 75 d8             	mov    DWORD PTR [rbp-0x28],esi
 678:	89 55 d4             	mov    DWORD PTR [rbp-0x2c],edx
 67b:	89 4d d0             	mov    DWORD PTR [rbp-0x30],ecx
 67e:	64 48 8b 04 25 28 00 	mov    rax,QWORD PTR fs:0x28
 685:	00 00 
 687:	48 89 45 f8          	mov    QWORD PTR [rbp-0x8],rax
 68b:	31 c0                	xor    eax,eax
 68d:	c7 45 e8 69 7a 00 00 	mov    DWORD PTR [rbp-0x18],0x7a69
 694:	c6 45 ee 41          	mov    BYTE PTR [rbp-0x12],0x41
 698:	90                   	nop
 699:	48 8b 45 f8          	mov    rax,QWORD PTR [rbp-0x8]
 69d:	64 48 33 04 25 28 00 	xor    rax,QWORD PTR fs:0x28
 6a4:	00 00 
 6a6:	74 05                	je     6ad <test_function+0x43>
 6a8:	e8 93 fe ff ff       	call   540 <__stack_chk_fail@plt>
 6ad:	c9                   	leave  
 6ae:	c3                   	ret    

00000000000006af <main>:
 6af:	55                   	push   rbp
 6b0:	48 89 e5             	mov    rbp,rsp
 6b3:	b9 04 00 00 00       	mov    ecx,0x4
 6b8:	ba 03 00 00 00       	mov    edx,0x3
 6bd:	be 02 00 00 00       	mov    esi,0x2
 6c2:	bf 01 00 00 00       	mov    edi,0x1
 6c7:	e8 9e ff ff ff       	call   66a <test_function>
 6cc:	b8 00 00 00 00       	mov    eax,0x0
 6d1:	5d                   	pop    rbp
 6d2:	c3                   	ret    
 6d3:	66 2e 0f 1f 84 00 00 	nop    WORD PTR cs:[rax+rax*1+0x0]
 6da:	00 00 00 
 6dd:	0f 1f 00             	nop    DWORD PTR [rax]

00000000000006e0 <__libc_csu_init>:
 6e0:	41 57                	push   r15
 6e2:	41 56                	push   r14
 6e4:	49 89 d7             	mov    r15,rdx
 6e7:	41 55                	push   r13
 6e9:	41 54                	push   r12
 6eb:	4c 8d 25 c6 06 20 00 	lea    r12,[rip+0x2006c6]        # 200db8 <__frame_dummy_init_array_entry>
 6f2:	55                   	push   rbp
 6f3:	48 8d 2d c6 06 20 00 	lea    rbp,[rip+0x2006c6]        # 200dc0 <__init_array_end>
 6fa:	53                   	push   rbx
 6fb:	41 89 fd             	mov    r13d,edi
 6fe:	49 89 f6             	mov    r14,rsi
 701:	4c 29 e5             	sub    rbp,r12
 704:	48 83 ec 08          	sub    rsp,0x8
 708:	48 c1 fd 03          	sar    rbp,0x3
 70c:	e8 ff fd ff ff       	call   510 <_init>
 711:	48 85 ed             	test   rbp,rbp
 714:	74 20                	je     736 <__libc_csu_init+0x56>
 716:	31 db                	xor    ebx,ebx
 718:	0f 1f 84 00 00 00 00 	nop    DWORD PTR [rax+rax*1+0x0]
 71f:	00 
 720:	4c 89 fa             	mov    rdx,r15
 723:	4c 89 f6             	mov    rsi,r14
 726:	44 89 ef             	mov    edi,r13d
 729:	41 ff 14 dc          	call   QWORD PTR [r12+rbx*8]
 72d:	48 83 c3 01          	add    rbx,0x1
 731:	48 39 dd             	cmp    rbp,rbx
 734:	75 ea                	jne    720 <__libc_csu_init+0x40>
 736:	48 83 c4 08          	add    rsp,0x8
 73a:	5b                   	pop    rbx
 73b:	5d                   	pop    rbp
 73c:	41 5c                	pop    r12
 73e:	41 5d                	pop    r13
 740:	41 5e                	pop    r14
 742:	41 5f                	pop    r15
 744:	c3                   	ret    
 745:	90                   	nop
 746:	66 2e 0f 1f 84 00 00 	nop    WORD PTR cs:[rax+rax*1+0x0]
 74d:	00 00 00 

0000000000000750 <__libc_csu_fini>:
 750:	f3 c3                	repz ret 

Disassembly of section .fini:

0000000000000754 <_fini>:
 754:	48 83 ec 08          	sub    rsp,0x8
 758:	48 83 c4 08          	add    rsp,0x8
 75c:	c3                   	ret    
